target datalayout = "e-m:e-p270:32:32-p271:32:32-p272:64:64-i64:64-i128:128-f80:128-n8:16:32:64-S128"
target triple = "x86_64-pc-linux-gnu"

%struct.ossl_param_st = type { ptr, i32, ptr, i64, i64 }

@.str.4 = private unnamed_addr constant [27 x i8] c"../openssl/test/drbgtest.c\00", align 1
@.str.89 = private unnamed_addr constant [7 x i8] c"cipher\00", align 1
@.str.90 = private unnamed_addr constant [12 x i8] c"AES-256-CTR\00", align 1
@.str.91 = private unnamed_addr constant [46 x i8] c"rand = EVP_RAND_fetch(NULL, \22CTR-DRBG\22, NULL)\00", align 1
@.str.92 = private unnamed_addr constant [9 x i8] c"CTR-DRBG\00", align 1
@.str.93 = private unnamed_addr constant [38 x i8] c"drbg = EVP_RAND_CTX_new(rand, parent)\00", align 1
@.str.94 = private unnamed_addr constant [38 x i8] c"EVP_RAND_CTX_set_params(drbg, params)\00", align 1

; Function Attrs: nounwind uwtable
define internal ptr @new_drbg(ptr noundef %0) #0 {
  %2 = alloca ptr, align 8
  %3 = alloca [2 x %struct.ossl_param_st], align 16
  %4 = alloca ptr, align 8
  %5 = alloca ptr, align 8
  %6 = alloca %struct.ossl_param_st, align 8
  %7 = alloca %struct.ossl_param_st, align 8
  store ptr %0, ptr %2, align 8, !tbaa !8
  call void @llvm.lifetime.start.p0(i64 80, ptr %3) #8
  call void @llvm.lifetime.start.p0(i64 8, ptr %4) #8
  store ptr null, ptr %4, align 8, !tbaa !49
  call void @llvm.lifetime.start.p0(i64 8, ptr %5) #8
  store ptr null, ptr %5, align 8, !tbaa !8
  %8 = getelementptr inbounds [2 x %struct.ossl_param_st], ptr %3, i64 0, i64 0
  call void @llvm.lifetime.start.p0(i64 40, ptr %6) #8
  call void @OSSL_PARAM_construct_utf8_string(ptr dead_on_unwind writable sret(%struct.ossl_param_st) align 8 %6, ptr noundef @.str.89, ptr noundef @.str.90, i64 noundef 0)
  call void @llvm.memcpy.p0.p0.i64(ptr align 16 %8, ptr align 8 %6, i64 40, i1 false), !tbaa.struct !28
  call void @llvm.lifetime.end.p0(i64 40, ptr %6) #8
  %9 = getelementptr inbounds [2 x %struct.ossl_param_st], ptr %3, i64 0, i64 1
  call void @llvm.lifetime.start.p0(i64 40, ptr %7) #8
  call void @OSSL_PARAM_construct_end(ptr dead_on_unwind writable sret(%struct.ossl_param_st) align 8 %7)
  call void @llvm.memcpy.p0.p0.i64(ptr align 8 %9, ptr align 8 %7, i64 40, i1 false), !tbaa.struct !28
  call void @llvm.lifetime.end.p0(i64 40, ptr %7) #8
  %10 = call ptr @EVP_RAND_fetch(ptr noundef null, ptr noundef @.str.92, ptr noundef null)
  store ptr %10, ptr %4, align 8, !tbaa !49
  %11 = call i32 @test_ptr(ptr noundef @.str.4, i32 noundef 792, ptr noundef @.str.91, ptr noundef %10)
  %12 = icmp ne i32 %11, 0
  br i1 %12, label %13, label %27

13:                                               ; preds = %1
  %14 = load ptr, ptr %4, align 8, !tbaa !49
  %15 = load ptr, ptr %2, align 8, !tbaa !8
  %16 = call ptr @EVP_RAND_CTX_new(ptr noundef %14, ptr noundef %15)
  store ptr %16, ptr %5, align 8, !tbaa !8
  %17 = call i32 @test_ptr(ptr noundef @.str.4, i32 noundef 793, ptr noundef @.str.93, ptr noundef %16)
  %18 = icmp ne i32 %17, 0
  br i1 %18, label %19, label %27

19:                                               ; preds = %13
  %20 = load ptr, ptr %5, align 8, !tbaa !8
  %21 = getelementptr inbounds [2 x %struct.ossl_param_st], ptr %3, i64 0, i64 0
  %22 = call i32 @EVP_RAND_CTX_set_params(ptr noundef %20, ptr noundef %21)
  %23 = icmp ne i32 %22, 0
  %24 = zext i1 %23 to i32
  %25 = call i32 @test_true(ptr noundef @.str.4, i32 noundef 794, ptr noundef @.str.94, i32 noundef %24)
  %26 = icmp ne i32 %25, 0
  br i1 %26, label %29, label %27

27:                                               ; preds = %19, %13, %1
  %28 = load ptr, ptr %5, align 8, !tbaa !8
  call void @EVP_RAND_CTX_free(ptr noundef %28)
  store ptr null, ptr %5, align 8, !tbaa !8
  br label %29

29:                                               ; preds = %27, %19
  %30 = load ptr, ptr %4, align 8, !tbaa !49
  call void @EVP_RAND_free(ptr noundef %30)
  %31 = load ptr, ptr %5, align 8, !tbaa !8
  call void @llvm.lifetime.end.p0(i64 8, ptr %5) #8
  call void @llvm.lifetime.end.p0(i64 8, ptr %4) #8
  call void @llvm.lifetime.end.p0(i64 80, ptr %3) #8
  ret ptr %31
}