; Function Attrs: nounwind uwtable
define internal fastcc noundef ptr @new_drbg(ptr noundef %0) unnamed_addr #0 {
  %2 = alloca [2 x %struct.ossl_param_st], align 16
  %3 = alloca %struct.ossl_param_st, align 8
  call void @llvm.lifetime.start.p0(i64 80, ptr nonnull %2) #14
  call void @OSSL_PARAM_construct_utf8_string(ptr dead_on_unwind nonnull writable sret(%struct.ossl_param_st) align 8 %2, ptr noundef nonnull @.str.89, ptr noundef nonnull @.str.90, i64 noundef 0) #14
  %4 = getelementptr inbounds nuw i8, ptr %2, i64 40
  call void @llvm.lifetime.start.p0(i64 40, ptr nonnull %3) #14
  call void @OSSL_PARAM_construct_end(ptr dead_on_unwind nonnull writable sret(%struct.ossl_param_st) align 8 %3) #14
  call void @llvm.memcpy.p0.p0.i64(ptr noundef nonnull align 8 dereferenceable(40) %4, ptr noundef nonnull align 8 dereferenceable(40) %3, i64 40, i1 false), !tbaa.struct !36
  call void @llvm.lifetime.end.p0(i64 40, ptr nonnull %3) #14
  %5 = call ptr @EVP_RAND_fetch(ptr noundef null, ptr noundef nonnull @.str.92, ptr noundef null) #14
  %6 = call i32 @test_ptr(ptr noundef nonnull @.str.4, i32 noundef 792, ptr noundef nonnull @.str.91, ptr noundef %5) #14
  %.not = icmp eq i32 %6, 0
  br i1 %.not, label %15, label %7

7:                                                ; preds = %1
  %8 = call ptr @EVP_RAND_CTX_new(ptr noundef %5, ptr noundef %0) #14
  %9 = call i32 @test_ptr(ptr noundef nonnull @.str.4, i32 noundef 793, ptr noundef nonnull @.str.93, ptr noundef %8) #14
  %.not6 = icmp eq i32 %9, 0
  br i1 %.not6, label %15, label %10

10:                                               ; preds = %7
  %11 = call i32 @EVP_RAND_CTX_set_params(ptr noundef %8, ptr noundef nonnull %2) #14
  %12 = icmp ne i32 %11, 0
  %13 = zext i1 %12 to i32
  %14 = call i32 @test_true(ptr noundef nonnull @.str.4, i32 noundef 794, ptr noundef nonnull @.str.94, i32 noundef %13) #14
  %.not7 = icmp eq i32 %14, 0
  br i1 %.not7, label %15, label %16

15:                                               ; preds = %10, %7, %1
  %.0 = phi ptr [ %8, %10 ], [ %8, %7 ], [ null, %1 ]
  call void @EVP_RAND_CTX_free(ptr noundef %.0) #14
  br label %16

16:                                               ; preds = %15, %10
  %.1 = phi ptr [ %8, %10 ], [ null, %15 ]
  call void @EVP_RAND_free(ptr noundef %5) #14
  call void @llvm.lifetime.end.p0(i64 80, ptr nonnull %2) #14
  ret ptr %.1
}